ccopy_reg
_reconstructor
p0
(cargparse
Namespace
p1
c__builtin__
object
p2
Ntp3
Rp4
(dp5
S'beta1'
p6
F0.9
sS'suffix'
p7
S''
p8
sS'geometry_aug'
p9
I1
sS'lr_min_m'
p10
F0.1
sS'rgb_max'
p11
F1.0
sS'seed'
p12
I9487
sS'fp16'
p13
I00
sS'checkpoint_dir'
p14
S'checkpoints'
p15
sS'weight_decay'
p16
I0
sS'lr_drop'
p17
F0.5
sS'crop_size'
p18
I192
sS'size_multiplier'
p19
I64
sS'data_dir'
p20
S'data'
p21
sS'w_ST'
p22
I100
sS'lr_init'
p23
F0.0001
sS'nf'
p24
I32
sS'lr_min'
p25
F1e-05
sS'list_dir'
p26
S'lists'
p27
sS'beta2'
p28
F0.999
sS'w_LT'
p29
I100
sS'gpu'
p30
I7
sS'lr_offset'
p31
I20
sS'norm'
p32
S'IN'
p33
sS'cuda'
p34
I01
sS'model_dir'
p35
S'checkpoints/TransformNet_B5_nf32_IN_T11_W3_D1_C1_I1_pw192_L1Loss_a50.0_wST100_wHT100_wVGG10_L4_ADAM_lr0.0001_off20_step20_drop0.5_min1e-05_es1000_bs4'
p36
sS'blocks'
p37
I5
sS'order_aug'
p38
I1
sS'VGGLayers'
p39
(lp40
I3
asS'epoch_max'
p41
I100
sS'datasets_tasks'
p42
S'W3_D1_C1_I1'
p43
sS'batch_size'
p44
I4
sS'w_VGG'
p45
I10
sS'lr_step'
p46
I20
sS'sample_frames'
p47
I11
sS'threads'
p48
I8
sS'valid_epoch_size'
p49
I100
sS'alpha'
p50
F50.0
sS'loss'
p51
S'L1'
p52
sS'scale_min'
p53
F0.5
sS'solver'
p54
S'ADAM'
p55
sS'scale_max'
p56
F2.0
sS'cpu'
p57
I00
sS'momentum'
p58
F0.9
sS'train_epoch_size'
p59
I1000
sS'model'
p60
S'TransformNet'
p61
sS'model_name'
p62
S'TransformNet_B5_nf32_IN_T11_W3_D1_C1_I1_pw192_L1Loss_a50.0_wST100_wHT100_wVGG10_L4_ADAM_lr0.0001_off20_step20_drop0.5_min1e-05_es1000_bs4'
p63
sb.